target datalayout = "e-m:e-p270:32:32-p271:32:32-p272:64:64-i64:64-i128:128-f80:128-n8:16:32:64-S128"
target triple = "x86_64-pc-linux-gnu"

; Function Attrs: nounwind uwtable
define internal double @b_weighting(ptr noundef %0, double noundef %1) #1 {
  %3 = alloca ptr, align 8
  %4 = alloca double, align 8
  %5 = alloca double, align 8
  store ptr %0, ptr %3, align 8, !tbaa !159
  store double %1, ptr %4, align 8, !tbaa !94
  call void @llvm.lifetime.start.p0(i64 8, ptr %5) #12
  %6 = load double, ptr %4, align 8, !tbaa !94
  %7 = load double, ptr %4, align 8, !tbaa !94
  %8 = fmul nsz double %6, %7
  %9 = load double, ptr %4, align 8, !tbaa !94
  %10 = fmul nsz double %8, %9
  %11 = fmul nsz double 1.488400e+08, %10
  store double %11, ptr %5, align 8, !tbaa !94
  %12 = load double, ptr %4, align 8, !tbaa !94
  %13 = load double, ptr %4, align 8, !tbaa !94
  %14 = call nsz double @llvm.fmuladd.f64(double %12, double %13, double 0x407A85C28F5C28F7)
  %15 = load double, ptr %4, align 8, !tbaa !94
  %16 = load double, ptr %4, align 8, !tbaa !94
  %17 = call nsz double @llvm.fmuladd.f64(double %15, double %16, double 1.488400e+08)
  %18 = fmul nsz double %14, %17
  %19 = load double, ptr %4, align 8, !tbaa !94
  %20 = load double, ptr %4, align 8, !tbaa !94
  %21 = call nsz double @llvm.fmuladd.f64(double %19, double %20, double 0x40D8889000000000)
  %22 = call nsz double @llvm.sqrt.f64(double %21)
  %23 = fmul nsz double %18, %22
  %24 = load double, ptr %5, align 8, !tbaa !94
  %25 = fdiv nsz double %24, %23
  store double %25, ptr %5, align 8, !tbaa !94
  %26 = load double, ptr %5, align 8, !tbaa !94
  call void @llvm.lifetime.end.p0(i64 8, ptr %5) #12
  ret double %26
}