; Function Attrs: mustprogress nofree norecurse nosync nounwind willreturn memory(none) uwtable
define internal noundef double @b_weighting(ptr readnone captures(none) %0, double noundef %1) #10 {
  %3 = fmul nsz double %1, %1
  %4 = fmul nsz double %1, %3
  %5 = fmul nsz double %4, 1.488400e+08
  %6 = tail call nsz double @llvm.fmuladd.f64(double %1, double %1, double 0x407A85C28F5C28F7)
  %7 = tail call nsz double @llvm.fmuladd.f64(double %1, double %1, double 1.488400e+08)
  %8 = fmul nsz double %6, %7
  %9 = tail call nsz double @llvm.fmuladd.f64(double %1, double %1, double 0x40D8889000000000)
  %10 = tail call nsz double @llvm.sqrt.f64(double %9)
  %11 = fmul nsz double %8, %10
  %12 = fdiv nsz double %5, %11
  ret double %12
}